; Function Attrs: inlinehint mustprogress nounwind uwtable
define internal fastcc void @"_ZZNK9grpc_core12_GLOBAL__N_117XdsOverrideHostLb6Picker18PickOverriddenHostEPNS_24XdsOverrideHostAttributeEEN3$_0D2Ev"(ptr noundef nonnull readonly align 8 dereferenceable(40) %0) unnamed_addr #14 align 2 personality ptr @__gxx_personality_v0 {
  %2 = getelementptr inbounds nuw i8, ptr %0, i64 8
  %3 = load ptr, ptr %2, align 8, !tbaa !39
  %4 = getelementptr inbounds nuw i8, ptr %0, i64 24
  %5 = icmp eq ptr %3, %4
  br i1 %5, label %_ZNKSt7__cxx1112basic_stringIcSt11char_traitsIcESaIcEE11_M_is_localEv.exit.thread.i.i, label %_ZNKSt7__cxx1112basic_stringIcSt11char_traitsIcESaIcEE11_M_is_localEv.exit.i.i

_ZNKSt7__cxx1112basic_stringIcSt11char_traitsIcESaIcEE11_M_is_localEv.exit.thread.i.i: ; preds = %1
  %6 = getelementptr inbounds nuw i8, ptr %0, i64 16
  %7 = load i64, ptr %6, align 8, !tbaa !31
  %8 = icmp ult i64 %7, 16
  tail call void @llvm.assume(i1 %8)
  br label %_ZNSt7__cxx1112basic_stringIcSt11char_traitsIcESaIcEED2Ev.exit

_ZNKSt7__cxx1112basic_stringIcSt11char_traitsIcESaIcEE11_M_is_localEv.exit.i.i: ; preds = %1
  %9 = load i64, ptr %4, align 8, !tbaa !16
  %10 = add i64 %9, 1
  tail call void @_ZdlPvm(ptr noundef %3, i64 noundef %10) #43
  br label %_ZNSt7__cxx1112basic_stringIcSt11char_traitsIcESaIcEED2Ev.exit

_ZNSt7__cxx1112basic_stringIcSt11char_traitsIcESaIcEED2Ev.exit: ; preds = %_ZNKSt7__cxx1112basic_stringIcSt11char_traitsIcESaIcEE11_M_is_localEv.exit.thread.i.i, %_ZNKSt7__cxx1112basic_stringIcSt11char_traitsIcESaIcEE11_M_is_localEv.exit.i.i
  %.val = load ptr, ptr %0, align 8, !tbaa !170
  %.not.i = icmp eq ptr %.val, null
  br i1 %.not.i, label %_ZN9grpc_core13RefCountedPtrINS_12_GLOBAL__N_117XdsOverrideHostLbEED2Ev.exit, label %11

11:                                               ; preds = %_ZNSt7__cxx1112basic_stringIcSt11char_traitsIcESaIcEED2Ev.exit
  %12 = getelementptr inbounds nuw i8, ptr %.val, i64 8
  %13 = atomicrmw sub ptr %12, i64 1 acq_rel, align 8
  %14 = icmp eq i64 %13, 1
  br i1 %14, label %15, label %_ZN9grpc_core13RefCountedPtrINS_12_GLOBAL__N_117XdsOverrideHostLbEED2Ev.exit, !prof !47

15:                                               ; preds = %11
  %16 = load ptr, ptr %.val, align 8, !tbaa !6
  %17 = getelementptr inbounds nuw i8, ptr %16, i64 16
  %18 = load ptr, ptr %17, align 8
  tail call void %18(ptr noundef nonnull align 8 dereferenceable(56) %.val) #40
  br label %_ZN9grpc_core13RefCountedPtrINS_12_GLOBAL__N_117XdsOverrideHostLbEED2Ev.exit

_ZN9grpc_core13RefCountedPtrINS_12_GLOBAL__N_117XdsOverrideHostLbEED2Ev.exit: ; preds = %_ZNSt7__cxx1112basic_stringIcSt11char_traitsIcESaIcEED2Ev.exit, %11, %15
  ret void
}